(dp0
Vhardcorelabia
p1
(lp2
NasVHiagoVinicius
p3
(lp4
NasVNoubIiezJamais
p5
(lp6
NasVDominemoslasTIC
p7
(lp8
V651199203847245825
p9
aNaV651032875861712896
p10
aNasVD3nnaina_
p11
(lp12
NasVGasaiPau
p13
(lp14
NasVgimtonic
p15
(lp16
NasVdesatinei
p17
(lp18
NasVMeigaLobis
p19
(lp20
NasVyaasjesus
p21
(lp22
NasVjauretrevas
p23
(lp24
NasVkkjklarry
p25
(lp26
NasVAngelaChispyarc
p27
(lp28
NasVogunte
p29
(lp30
V651267845511380993
p31
aNaV650902581984784384
p32
aNaV650570828053114880
p33
aNasVVenancioGalan
p34
(lp35
V649992751086477312
p36
aNasVlabestiatriste
p37
(lp38
NasVBah_pettermann
p39
(lp40
NasVMarinaSL31
p41
(lp42
NasVisagorrachategu
p43
(lp44
NasVi_insectica
p45
(lp46
NasVPotosmonkos
p47
(lp48
NasV69taboo69
p49
(lp50
NasVcomunicadorasIA
p51
(lp52
NasVFRIDAfund
p53
(lp54
V650884967065489408
p55
aNasVJuananBrundle
p56
(lp57
NasVjtetodesco
p58
(lp59
NasVnano_toporoff
p60
(lp61
NasVIinkinparque
p62
(lp63
NasVLady_Milith
p64
(lp65
NasVTheDoctorcraft
p66
(lp67
NasVsylly_sylvia
p68
(lp69
NasVCalawmityrex
p70
(lp71
NasVBelZuritaOrtiz
p72
(lp73
NasVJoZurBay
p74
(lp75
V650116042287656960
p76
aNasVTania_Tagle
p77
(lp78
V652190390586470400
p79
aNaNasVcuadritocanibal
p80
(lp81
V652191107325935616
p82
aNas.