(dp0
Vilaito_
p1
(lp2
V650217500370669568
p3
aNaV650217594562170880
p4
aNaV650234350982795264
p5
aNaV650228453082591232
p6
aNaV650234472277897216
p7
aNaNaV649985993244823552
p8
aNaV649990372475670528
p9
aNaV649985993244823552
p10
aNaV649985993244823552
p11
asVbertacomo
p12
(lp13
V652161440963399680
p14
aNasVbrunessando
p15
(lp16
NasVdulcedesoda
p17
(lp18
NasVParenElPlaneta
p19
(lp20
V650747641979097088
p21
aNasVO_edipus
p22
(lp23
V650910955560411136
p24
aNaNaNaV650915239547006976
p25
aNaV650960242507911168
p26
aNaV650753843224031232
p27
aNaV650755460308598784
p28
aNaV650756044323426304
p29
aNaV650759897638936576
p30
aNasVIzabelaj_
p31
(lp32
NasV_donahelo
p33
(lp34
NasVMasculinismoEsp
p35
(lp36
V650037839061774337
p37
aV650037839061774337
p38
aNaNaV650009112516927488
p39
aNaV649972612391682053
p40
aNasVCallejabmary
p41
(lp42
V650741098005053442
p43
aNasVCorreodelCaroni
p44
(lp45
NasVwoorkaholic
p46
(lp47
NasVlaradibar
p48
(lp49
NasVjchernandezqui2
p50
(lp51
V650008814658416640
p52
aV650008814658416640
p53
aNaV650004966388727808
p54
aNasVDuroBelinda
p55
(lp56
V650496222202085376
p57
aNaV650031795573030912
p58
aNasVMachitsen
p59
(lp60
V650737717693784064
p61
aNaV650738026503647233
p62
aNaV650739834890399748
p63
aNasVfelipedice
p64
(lp65
NasVMomoDice
p66
(lp67
V650711635041107968
p68
aNasVCaroRB2011
p69
(lp70
NasVJesus_Silva_R
p71
(lp72
V649966802731147264
p73
aNasVmujerporlapaz
p74
(lp75
V651076524108574720
p76
aNaV651098288393814016
p77
aNaV650761933784662016
p78
aNasVairenea_stp
p79
(lp80
NasVOhirma1
p81
(lp82
NasVZonaSegPuebla
p83
(lp84
V649957162211520512
p85
aNasVEarwen_lr
p86
(lp87
V650461610025328640
p88
aNasVcarmenk18
p89
(lp90
V650955966104641536
p91
aV650955966104641536
p92
aV650956809516240896
p93
aNaNaV650804873064259584
p94
aNasVNOmasVG
p95
(lp96
V651453119008776192
p97
aNasVvisionmxli
p98
(lp99
V650228749221298176
p100
aNaV650231862971904000
p101
aNaV650228174245130240
p102
aNasVginaom78
p103
(lp104
NasVAna_Bunker
p105
(lp106
V650050770759356416
p107
aNaNaV650017513959391232
p108
aV650020183025717248
p109
aNaNaV650014127172136960
p110
aV649993670737854464
p111
aNasVteugranderabo
p112
(lp113
NasVsinfucio13
p114
(lp115
V650737858278490113
p116
aNasVinl0vewithhate
p117
(lp118
NasVsadtemaki
p119
(lp120
NasVNathAraujo__
p121
(lp122
NasVJoZurBay
p123
(lp124
V650695120543727616
p125
aNasVmarkito_knl
p126
(lp127
NasVAinhoaEzquiaga
p128
(lp129
V651346385078472706
p130
aNaV650632436540403712
p131
aNasVVientosOrihuela
p132
(lp133
V650353981558882304
p134
aNasVPing57
p135
(lp136
NaNasVReikiLisol
p137
(lp138
V650177753510096896
p139
aNasVgeneroUPN
p140
(lp141
V651286041307910144
p142
aNaV650077667161583616
p143
aNas.